; Function Attrs: mustprogress uwtable
define internal fastcc void @_ZN12_GLOBAL__N_110InfoWriter8SetArrayISt3setINSt7__cxx1112basic_stringIcSt11char_traitsIcESaIcEEESt4lessIS8_ESaIS8_EEEEvRKS8_RKT_(ptr noundef nonnull align 8 dereferenceable(40) %0, ptr noundef nonnull align 8 dereferenceable(32) %1, ptr noundef nonnull readonly align 8 dereferenceable(48) %2) unnamed_addr #3 align 2 personality ptr @__gxx_personality_v0 {
  %4 = alloca %"class.Json::Value", align 8
  %5 = alloca %"class.Json::Value", align 8
  %6 = tail call noundef nonnull align 8 dereferenceable(40) ptr @_ZN4Json5ValueixERKNSt7__cxx1112basic_stringIcSt11char_traitsIcESaIcEEE(ptr noundef nonnull align 8 dereferenceable(40) %0, ptr noundef nonnull align 8 dereferenceable(32) %1)
  call void @llvm.lifetime.start.p0(i64 40, ptr nonnull %5)
  call void @llvm.lifetime.start.p0(i64 40, ptr nonnull %4)
  call void @_ZN4Json5ValueC1ENS_9ValueTypeE(ptr noundef nonnull align 8 dereferenceable(40) %4, i32 noundef 6)
  %7 = call noundef nonnull align 8 dereferenceable(40) ptr @_ZN4Json5ValueaSEOS0_(ptr noundef nonnull align 8 dereferenceable(40) %6, ptr noundef nonnull align 8 dereferenceable(40) %4) #21
  call void @_ZN4Json5ValueD1Ev(ptr noundef nonnull align 8 dereferenceable(40) %4) #21
  %8 = getelementptr inbounds i8, ptr %2, i64 40
  %9 = load i64, ptr %8, align 8
  %.not.i = icmp eq i64 %9, 0
  br i1 %.not.i, label %_ZN12_GLOBAL__N_110InfoWriter9MakeArrayISt3setINSt7__cxx1112basic_stringIcSt11char_traitsIcESaIcEEESt4lessIS8_ESaIS8_EEEEbRN4Json5ValueERKT_.exit.i, label %10

_ZN12_GLOBAL__N_110InfoWriter9MakeArrayISt3setINSt7__cxx1112basic_stringIcSt11char_traitsIcESaIcEEESt4lessIS8_ESaIS8_EEEEbRN4Json5ValueERKT_.exit.i: ; preds = %3
  call void @llvm.lifetime.end.p0(i64 40, ptr nonnull %4)
  br label %_ZN12_GLOBAL__N_110InfoWriter15MakeStringArrayISt3setINSt7__cxx1112basic_stringIcSt11char_traitsIcESaIcEEESt4lessIS8_ESaIS8_EEEEvRN4Json5ValueERKT_.exit

10:                                               ; preds = %3
  %11 = trunc i64 %9 to i32
  call void @_ZN4Json5Value6resizeEj(ptr noundef nonnull align 8 dereferenceable(40) %6, i32 noundef %11)
  call void @llvm.lifetime.end.p0(i64 40, ptr nonnull %4)
  %12 = getelementptr inbounds i8, ptr %2, i64 24
  %13 = load ptr, ptr %12, align 8
  %14 = getelementptr inbounds i8, ptr %2, i64 8
  %.not1213.i = icmp eq ptr %13, %14
  br i1 %.not1213.i, label %_ZN12_GLOBAL__N_110InfoWriter15MakeStringArrayISt3setINSt7__cxx1112basic_stringIcSt11char_traitsIcESaIcEEESt4lessIS8_ESaIS8_EEEEvRN4Json5ValueERKT_.exit, label %.lr.ph.i

.lr.ph.i:                                         ; preds = %10, %17
  %.015.i = phi i32 [ %18, %17 ], [ 0, %10 ]
  %.sroa.09.014.i = phi ptr [ %20, %17 ], [ %13, %10 ]
  %15 = getelementptr inbounds i8, ptr %.sroa.09.014.i, i64 32
  call void @_ZN4Json5ValueC1ERKNSt7__cxx1112basic_stringIcSt11char_traitsIcESaIcEEE(ptr noundef nonnull align 8 dereferenceable(40) %5, ptr noundef nonnull align 8 dereferenceable(32) %15)
  %16 = invoke noundef nonnull align 8 dereferenceable(40) ptr @_ZN4Json5ValueixEj(ptr noundef nonnull align 8 dereferenceable(40) %6, i32 noundef %.015.i)
          to label %17 unwind label %21

17:                                               ; preds = %.lr.ph.i
  %18 = add i32 %.015.i, 1
  %19 = call noundef nonnull align 8 dereferenceable(40) ptr @_ZN4Json5ValueaSEOS0_(ptr noundef nonnull align 8 dereferenceable(40) %16, ptr noundef nonnull align 8 dereferenceable(40) %5) #21
  call void @_ZN4Json5ValueD1Ev(ptr noundef nonnull align 8 dereferenceable(40) %5) #21
  %20 = call noundef ptr @_ZSt18_Rb_tree_incrementPKSt18_Rb_tree_node_base(ptr noundef %.sroa.09.014.i) #25
  %.not12.i = icmp eq ptr %20, %14
  br i1 %.not12.i, label %_ZN12_GLOBAL__N_110InfoWriter15MakeStringArrayISt3setINSt7__cxx1112basic_stringIcSt11char_traitsIcESaIcEEESt4lessIS8_ESaIS8_EEEEvRN4Json5ValueERKT_.exit, label %.lr.ph.i

21:                                               ; preds = %.lr.ph.i
  %22 = landingpad { ptr, i32 }
          cleanup
  call void @_ZN4Json5ValueD1Ev(ptr noundef nonnull align 8 dereferenceable(40) %5) #21
  resume { ptr, i32 } %22

_ZN12_GLOBAL__N_110InfoWriter15MakeStringArrayISt3setINSt7__cxx1112basic_stringIcSt11char_traitsIcESaIcEEESt4lessIS8_ESaIS8_EEEEvRN4Json5ValueERKT_.exit: ; preds = %17, %_ZN12_GLOBAL__N_110InfoWriter9MakeArrayISt3setINSt7__cxx1112basic_stringIcSt11char_traitsIcESaIcEEESt4lessIS8_ESaIS8_EEEEbRN4Json5ValueERKT_.exit.i, %10
  call void @llvm.lifetime.end.p0(i64 40, ptr nonnull %5)
  ret void
}